target datalayout = "e-m:e-p270:32:32-p271:32:32-p272:64:64-i64:64-i128:128-f80:128-n8:16:32:64-S128"
target triple = "x86_64-pc-linux-gnu"

@HDR_UNAVAIL = internal global ptr @.str.68, align 8

; Function Attrs: nounwind uwtable
define internal ptr @makesanehdr(ptr noundef %0) #0 {
  %2 = alloca ptr, align 8
  %3 = alloca ptr, align 8
  %4 = alloca ptr, align 8
  store ptr %0, ptr %3, align 8
  %5 = load ptr, ptr %3, align 8
  store ptr %5, ptr %4, align 8
  %6 = load ptr, ptr %3, align 8
  %7 = icmp ne ptr %6, null
  br i1 %7, label %10, label %8

8:                                                ; preds = %1
  %9 = load ptr, ptr @HDR_UNAVAIL, align 8
  store ptr %9, ptr %2, align 8
  br label %54

10:                                               ; preds = %1
  br label %11

11:                                               ; preds = %49, %10
  %12 = load ptr, ptr %3, align 8
  %13 = load i8, ptr %12, align 1
  %14 = icmp ne i8 %13, 0
  br i1 %14, label %15, label %52

15:                                               ; preds = %11
  %16 = load ptr, ptr %3, align 8
  %17 = load i8, ptr %16, align 1
  %18 = sext i8 %17 to i32
  %19 = icmp eq i32 %18, 39
  br i1 %19, label %47, label %20

20:                                               ; preds = %15
  %21 = load ptr, ptr %3, align 8
  %22 = load i8, ptr %21, align 1
  %23 = sext i8 %22 to i32
  %24 = icmp eq i32 %23, 9
  br i1 %24, label %47, label %25

25:                                               ; preds = %20
  %26 = load ptr, ptr %3, align 8
  %27 = load i8, ptr %26, align 1
  %28 = sext i8 %27 to i32
  %29 = icmp eq i32 %28, 13
  br i1 %29, label %47, label %30

30:                                               ; preds = %25
  %31 = load ptr, ptr %3, align 8
  %32 = load i8, ptr %31, align 1
  %33 = sext i8 %32 to i32
  %34 = icmp eq i32 %33, 10
  br i1 %34, label %47, label %35

35:                                               ; preds = %30
  %36 = call ptr @__ctype_b_loc() #11
  %37 = load ptr, ptr %36, align 8
  %38 = load ptr, ptr %3, align 8
  %39 = load i8, ptr %38, align 1
  %40 = sext i8 %39 to i32
  %41 = sext i32 %40 to i64
  %42 = getelementptr inbounds i16, ptr %37, i64 %41
  %43 = load i16, ptr %42, align 2
  %44 = zext i16 %43 to i32
  %45 = and i32 %44, 16384
  %46 = icmp ne i32 %45, 0
  br i1 %46, label %49, label %47

47:                                               ; preds = %35, %30, %25, %20, %15
  %48 = load ptr, ptr %3, align 8
  store i8 32, ptr %48, align 1
  br label %49

49:                                               ; preds = %47, %35
  %50 = load ptr, ptr %3, align 8
  %51 = getelementptr inbounds i8, ptr %50, i32 1
  store ptr %51, ptr %3, align 8
  br label %11

52:                                               ; preds = %11
  %53 = load ptr, ptr %4, align 8
  store ptr %53, ptr %2, align 8
  br label %54

54:                                               ; preds = %52, %8
  %55 = load ptr, ptr %2, align 8
  ret ptr %55
}