; Function Attrs: nofree nosync nounwind memory(readwrite, inaccessiblemem: none) uwtable
define internal fastcc noundef ptr @makesanehdr(ptr noundef %0) unnamed_addr #8 {
  %.not = icmp eq ptr %0, null
  br i1 %.not, label %.loopexit, label %.preheader

.preheader:                                       ; preds = %1, %11
  %.012 = phi ptr [ %12, %11 ], [ %0, %1 ]
  %2 = load i8, ptr %.012, align 1
  switch i8 %2, label %3 [
    i8 0, label %.loopexit
    i8 39, label %10
    i8 9, label %10
    i8 13, label %10
    i8 10, label %10
  ]

3:                                                ; preds = %.preheader
  %4 = tail call ptr @__ctype_b_loc() #19
  %5 = load ptr, ptr %4, align 8
  %6 = sext i8 %2 to i64
  %7 = getelementptr inbounds i16, ptr %5, i64 %6
  %8 = load i16, ptr %7, align 2
  %9 = and i16 %8, 16384
  %.not17 = icmp eq i16 %9, 0
  br i1 %.not17, label %10, label %11

10:                                               ; preds = %.preheader, %.preheader, %.preheader, %.preheader, %3
  store i8 32, ptr %.012, align 1
  br label %11

11:                                               ; preds = %10, %3
  %12 = getelementptr inbounds i8, ptr %.012, i64 1
  br label %.preheader

.loopexit:                                        ; preds = %.preheader, %1
  %.0 = phi ptr [ @.str.68, %1 ], [ %0, %.preheader ]
  ret ptr %.0
}